; Function Attrs: nounwind uwtable
define internal i32 @kwajd_decompress(ptr noundef %0, ptr noundef %1, ptr noundef %2) #0 {
  %.not = icmp eq ptr %0, null
  br i1 %.not, label %32, label %4

4:                                                ; preds = %3
  %5 = tail call ptr @kwajd_open(ptr noundef nonnull %0, ptr noundef %1)
  %.not14 = icmp eq ptr %5, null
  br i1 %.not14, label %6, label %9

6:                                                ; preds = %4
  %7 = getelementptr inbounds nuw i8, ptr %0, i64 48
  %8 = load i32, ptr %7, align 8
  br label %32

9:                                                ; preds = %4
  %10 = tail call i32 @kwajd_extract(ptr noundef nonnull %0, ptr noundef nonnull %5, ptr noundef %2)
  %11 = getelementptr inbounds nuw i8, ptr %0, i64 40
  %12 = load ptr, ptr %11, align 8
  %.not14.i = icmp eq ptr %12, null
  br i1 %.not14.i, label %kwajd_close.exit, label %13

13:                                               ; preds = %9
  %14 = getelementptr inbounds nuw i8, ptr %12, i64 8
  %15 = load ptr, ptr %14, align 8
  %16 = getelementptr inbounds nuw i8, ptr %5, i64 56
  %17 = load ptr, ptr %16, align 8
  tail call void %15(ptr noundef %17) #6
  %18 = load ptr, ptr %11, align 8
  %19 = getelementptr inbounds nuw i8, ptr %18, i64 64
  %20 = load ptr, ptr %19, align 8
  %21 = getelementptr inbounds nuw i8, ptr %5, i64 32
  %22 = load ptr, ptr %21, align 8
  tail call void %20(ptr noundef %22) #6
  %23 = load ptr, ptr %11, align 8
  %24 = getelementptr inbounds nuw i8, ptr %23, i64 64
  %25 = load ptr, ptr %24, align 8
  %26 = getelementptr inbounds nuw i8, ptr %5, i64 40
  %27 = load ptr, ptr %26, align 8
  tail call void %25(ptr noundef %27) #6
  %28 = load ptr, ptr %11, align 8
  %29 = getelementptr inbounds nuw i8, ptr %28, i64 64
  %30 = load ptr, ptr %29, align 8
  tail call void %30(ptr noundef nonnull %5) #6
  br label %kwajd_close.exit

kwajd_close.exit:                                 ; preds = %9, %13
  %31 = getelementptr inbounds nuw i8, ptr %0, i64 48
  store i32 %10, ptr %31, align 8
  br label %32

32:                                               ; preds = %3, %kwajd_close.exit, %6
  %.0 = phi i32 [ %10, %kwajd_close.exit ], [ %8, %6 ], [ 1, %3 ]
  ret i32 %.0
}